target datalayout = "e-m:e-p270:32:32-p271:32:32-p272:64:64-i64:64-i128:128-f80:128-n8:16:32:64-S128"
target triple = "x86_64-pc-linux-gnu"

%struct.cLLog_private = type { i32, i32, [5 x i8], [5 x i8], [20 x i8], i32, i32, %struct.cCLLog_timeStamp_t, [20 x i8], i8, i8, i8, i8, i8, i8, i32, i32, i32, [7 x ptr], %struct.cCLLog_timeStamp_t }
%struct.cCLLog_timeStamp_t = type { i64, i16 }

@.str.28 = private unnamed_addr constant [29 x i8] c"cllog: %s value is not valid\00", align 1
@.str.40 = private unnamed_addr constant [12 x i8] c"silent mode\00", align 1
@.str.41 = private unnamed_addr constant [5 x i8] c"true\00", align 1
@.str.42 = private unnamed_addr constant [6 x i8] c"false\00", align 1

; Function Attrs: null_pointer_is_valid sspstrong uwtable
define internal zeroext i1 @parseBoolean(ptr noundef %0, ptr noundef %1, ptr noundef %2, ptr noundef %3, ptr noundef %4) #0 {
  %6 = alloca i1, align 1
  %7 = alloca ptr, align 8
  %8 = alloca ptr, align 8
  %9 = alloca ptr, align 8
  %10 = alloca ptr, align 8
  %11 = alloca ptr, align 8
  store ptr %0, ptr %7, align 8
  store ptr %1, ptr %8, align 8
  store ptr %2, ptr %9, align 8
  store ptr %3, ptr %10, align 8
  store ptr %4, ptr %11, align 8
  %12 = load ptr, ptr %7, align 8
  %13 = call i32 @strcmp(ptr noundef %12, ptr noundef @.str.41) #16
  %14 = icmp eq i32 %13, 0
  br i1 %14, label %15, label %17

15:                                               ; preds = %5
  %16 = load ptr, ptr %8, align 8
  store i8 1, ptr %16, align 1
  br label %29

17:                                               ; preds = %5
  %18 = load ptr, ptr %7, align 8
  %19 = call i32 @strcmp(ptr noundef %18, ptr noundef @.str.42) #16
  %20 = icmp eq i32 %19, 0
  br i1 %20, label %21, label %23

21:                                               ; preds = %17
  %22 = load ptr, ptr %8, align 8
  store i8 0, ptr %22, align 1
  br label %28

23:                                               ; preds = %17
  %24 = load ptr, ptr %10, align 8
  store i32 -13, ptr %24, align 4
  %25 = load ptr, ptr %9, align 8
  %26 = call noalias ptr (ptr, ptr, ...) @wmem_strdup_printf(ptr noundef null, ptr noundef @.str.28, ptr noundef %25)
  %27 = load ptr, ptr %11, align 8
  store ptr %26, ptr %27, align 8
  store i1 false, ptr %6, align 1
  br label %30

28:                                               ; preds = %21
  br label %29

29:                                               ; preds = %28, %15
  store i1 true, ptr %6, align 1
  br label %30

30:                                               ; preds = %29, %23
  %31 = load i1, ptr %6, align 1
  ret i1 %31
}

; Function Attrs: null_pointer_is_valid sspstrong uwtable
define internal zeroext i1 @parseLogFileHeaderLine_cyclicMode(ptr noundef %0, ptr noundef %1, ptr noundef %2, ptr noundef %3) #0 {
  %5 = alloca i1, align 1
  %6 = alloca ptr, align 8
  %7 = alloca ptr, align 8
  %8 = alloca ptr, align 8
  %9 = alloca ptr, align 8
  %10 = alloca i8, align 1
  %11 = alloca i32, align 4
  store ptr %0, ptr %6, align 8
  store ptr %1, ptr %7, align 8
  store ptr %2, ptr %8, align 8
  store ptr %3, ptr %9, align 8
  call void @llvm.lifetime.start.p0(i64 1, ptr %10) #13
  %12 = load ptr, ptr %7, align 8
  %13 = load ptr, ptr %8, align 8
  %14 = load ptr, ptr %9, align 8
  %15 = call zeroext i1 @parseBoolean(ptr noundef %12, ptr noundef %10, ptr noundef @.str.40, ptr noundef %13, ptr noundef %14)
  br i1 %15, label %17, label %16

16:                                               ; preds = %4
  store i1 false, ptr %5, align 1
  store i32 1, ptr %11, align 4
  br label %27

17:                                               ; preds = %4
  %18 = load i8, ptr %10, align 1, !range !11, !noundef !12
  %19 = trunc i8 %18 to i1
  br i1 %19, label %20, label %23

20:                                               ; preds = %17
  %21 = load ptr, ptr %6, align 8
  %22 = getelementptr inbounds nuw %struct.cLLog_private, ptr %21, i32 0, i32 17
  store i32 1, ptr %22, align 4
  br label %26

23:                                               ; preds = %17
  %24 = load ptr, ptr %6, align 8
  %25 = getelementptr inbounds nuw %struct.cLLog_private, ptr %24, i32 0, i32 17
  store i32 0, ptr %25, align 4
  br label %26

26:                                               ; preds = %23, %20
  store i1 true, ptr %5, align 1
  store i32 1, ptr %11, align 4
  br label %27

27:                                               ; preds = %26, %16
  call void @llvm.lifetime.end.p0(i64 1, ptr %10) #13
  %28 = load i1, ptr %5, align 1
  ret i1 %28
}