; Function Attrs: null_pointer_is_valid sspstrong uwtable
define internal noundef zeroext i1 @parseLogFileHeaderLine_cyclicMode(ptr noundef writeonly captures(none) %0, ptr noundef readonly captures(none) %1, ptr noundef writeonly captures(none) %2, ptr noundef writeonly captures(none) %3) #0 {
  %5 = tail call i32 @strcmp(ptr noundef readonly %1, ptr noundef nonnull dereferenceable(5) @.str.41) #12
  %6 = icmp eq i32 %5, 0
  br i1 %6, label %11, label %7

7:                                                ; preds = %4
  %8 = tail call i32 @strcmp(ptr noundef readonly %1, ptr noundef nonnull dereferenceable(6) @.str.42) #12
  %9 = icmp eq i32 %8, 0
  br i1 %9, label %13, label %parseBoolean.exit

parseBoolean.exit:                                ; preds = %7
  store i32 -13, ptr %2, align 4
  %10 = tail call noalias ptr (ptr, ptr, ...) @wmem_strdup_printf(ptr noundef null, ptr noundef nonnull @.str.28, ptr noundef nonnull @.str.40)
  store ptr %10, ptr %3, align 8
  br label %15

11:                                               ; preds = %4
  %12 = getelementptr inbounds nuw i8, ptr %0, i64 100
  store i32 1, ptr %12, align 4
  br label %15

13:                                               ; preds = %7
  %14 = getelementptr inbounds nuw i8, ptr %0, i64 100
  store i32 0, ptr %14, align 4
  br label %15

15:                                               ; preds = %parseBoolean.exit, %11, %13
  %.0.i9 = phi i1 [ true, %11 ], [ true, %13 ], [ false, %parseBoolean.exit ]
  ret i1 %.0.i9
}